; Function Attrs: mustprogress uwtable
define hidden void @_ZN12mpbq_manager3addERK4mpbqRK3mpzRS0_(ptr noundef nonnull align 8 dereferenceable(208) %0, ptr noundef nonnull align 8 dereferenceable(20) %1, ptr noundef nonnull align 8 dereferenceable(16) %2, ptr noundef nonnull align 8 dereferenceable(20) %3) local_unnamed_addr #3 align 2 {
  %5 = getelementptr inbounds nuw i8, ptr %1, i64 16
  %6 = load i32, ptr %5, align 8, !tbaa !13
  %7 = icmp eq i32 %6, 0
  %8 = load ptr, ptr %0, align 8, !tbaa !26
  br i1 %7, label %9, label %10

9:                                                ; preds = %4
  tail call void @_ZN11mpz_managerILb0EE3addERK3mpzS3_RS1_(ptr noundef nonnull align 8 dereferenceable(600) %8, ptr noundef nonnull align 8 dereferenceable(16) %1, ptr noundef nonnull align 8 dereferenceable(16) %2, ptr noundef nonnull align 8 dereferenceable(16) %3)
  br label %23

10:                                               ; preds = %4
  %11 = getelementptr inbounds nuw i8, ptr %0, i64 8
  %12 = getelementptr inbounds nuw i8, ptr %2, i64 4
  %13 = load i8, ptr %12, align 4
  %14 = and i8 %13, 1
  %15 = icmp eq i8 %14, 0
  br i1 %15, label %16, label %21

16:                                               ; preds = %10
  %17 = load i32, ptr %2, align 8, !tbaa !3
  store i32 %17, ptr %11, align 8, !tbaa !3
  %18 = getelementptr inbounds nuw i8, ptr %0, i64 12
  %19 = load i8, ptr %18, align 4
  %20 = and i8 %19, -2
  store i8 %20, ptr %18, align 4
  br label %_ZN11mpz_managerILb0EE5mul2kERK3mpzjRS1_.exit

21:                                               ; preds = %10
  tail call void @_ZN11mpz_managerILb0EE7big_setER3mpzRKS1_(ptr noundef nonnull align 8 dereferenceable(600) %8, ptr noundef nonnull align 8 dereferenceable(16) %11, ptr noundef nonnull align 8 dereferenceable(16) %2)
  br label %_ZN11mpz_managerILb0EE5mul2kERK3mpzjRS1_.exit

_ZN11mpz_managerILb0EE5mul2kERK3mpzjRS1_.exit:    ; preds = %16, %21
  tail call void @_ZN11mpz_managerILb0EE5mul2kER3mpzj(ptr noundef nonnull align 8 dereferenceable(600) %8, ptr noundef nonnull align 8 dereferenceable(16) %11, i32 noundef %6)
  %22 = load ptr, ptr %0, align 8, !tbaa !26
  tail call void @_ZN11mpz_managerILb0EE3addERK3mpzS3_RS1_(ptr noundef nonnull align 8 dereferenceable(600) %22, ptr noundef nonnull align 8 dereferenceable(16) %1, ptr noundef nonnull align 8 dereferenceable(16) %11, ptr noundef nonnull align 8 dereferenceable(16) %3)
  br label %23

23:                                               ; preds = %_ZN11mpz_managerILb0EE5mul2kERK3mpzjRS1_.exit, %9
  %24 = load i32, ptr %5, align 8, !tbaa !13
  %25 = getelementptr inbounds nuw i8, ptr %3, i64 16
  store i32 %24, ptr %25, align 8, !tbaa !13
  %26 = getelementptr inbounds nuw i8, ptr %3, i64 16
  %27 = icmp eq i32 %24, 0
  br i1 %27, label %_ZN12mpbq_manager9normalizeER4mpbq.exit, label %28

28:                                               ; preds = %23
  %29 = load i32, ptr %3, align 8, !tbaa !3
  %30 = icmp eq i32 %29, 0
  br i1 %30, label %.sink.split.i, label %31

31:                                               ; preds = %28
  %32 = load ptr, ptr %0, align 8, !tbaa !26
  %33 = tail call noundef i32 @_ZN11mpz_managerILb0EE21power_of_two_multipleERK3mpz(ptr noundef nonnull align 8 dereferenceable(600) %32, ptr noundef nonnull align 8 dereferenceable(20) %3)
  %34 = load i32, ptr %26, align 8, !tbaa !13
  %spec.select.i = tail call i32 @llvm.umin.i32(i32 %33, i32 %34)
  %35 = load ptr, ptr %0, align 8, !tbaa !26
  tail call void @_ZN11mpz_managerILb0EE13machine_div2kER3mpzj(ptr noundef nonnull align 8 dereferenceable(600) %35, ptr noundef nonnull align 8 dereferenceable(20) %3, i32 noundef %spec.select.i)
  %36 = load i32, ptr %26, align 8, !tbaa !13
  %37 = sub i32 %36, %spec.select.i
  br label %.sink.split.i

.sink.split.i:                                    ; preds = %31, %28
  %.sink.i = phi i32 [ %37, %31 ], [ 0, %28 ]
  store i32 %.sink.i, ptr %26, align 8, !tbaa !13
  br label %_ZN12mpbq_manager9normalizeER4mpbq.exit

_ZN12mpbq_manager9normalizeER4mpbq.exit:          ; preds = %23, %.sink.split.i
  ret void
}